target datalayout = "e-m:e-p270:32:32-p271:32:32-p272:64:64-i64:64-i128:128-f80:128-n8:16:32:64-S128"
target triple = "x86_64-pc-linux-gnu"

%struct.ArrayType = type { i32, i32, i32, i32 }

@.str.1 = private unnamed_addr constant [10 x i8] c"funcapi.c\00", align 1
@.str.11 = private unnamed_addr constant [56 x i8] c"protrftypes is not a 1-D Oid array or it contains nulls\00", align 1
@__func__.get_func_trftypes = private unnamed_addr constant [18 x i8] c"get_func_trftypes\00", align 1

; Function Attrs: inlinehint nounwind uwtable
define internal ptr @DatumGetPointer(i64 noundef %0) #4 {
  %2 = alloca i64, align 8
  store i64 %0, ptr %2, align 8
  %3 = load i64, ptr %2, align 8
  %4 = inttoptr i64 %3 to ptr
  ret ptr %4
}

; Function Attrs: nounwind uwtable
define dso_local i32 @get_func_trftypes(ptr noundef %0, ptr noundef %1) #0 {
  %3 = alloca i32, align 4
  %4 = alloca ptr, align 8
  %5 = alloca ptr, align 8
  %6 = alloca i64, align 8
  %7 = alloca ptr, align 8
  %8 = alloca i32, align 4
  %9 = alloca i8, align 1
  %10 = alloca i32, align 4
  store ptr %0, ptr %4, align 8
  store ptr %1, ptr %5, align 8
  call void @llvm.lifetime.start.p0(i64 8, ptr %6) #7
  call void @llvm.lifetime.start.p0(i64 8, ptr %7) #7
  call void @llvm.lifetime.start.p0(i64 4, ptr %8) #7
  call void @llvm.lifetime.start.p0(i64 1, ptr %9) #7
  %11 = load ptr, ptr %4, align 8
  %12 = call i64 @SysCacheGetAttr(i32 noundef 47, ptr noundef %11, i16 noundef signext 25, ptr noundef %9)
  store i64 %12, ptr %6, align 8
  %13 = load i8, ptr %9, align 1, !range !4, !noundef !5
  %14 = trunc i8 %13 to i1
  br i1 %14, label %85, label %15

15:                                               ; preds = %2
  %16 = load i64, ptr %6, align 8
  %17 = call ptr @DatumGetPointer(i64 noundef %16)
  %18 = call ptr @pg_detoast_datum(ptr noundef %17)
  store ptr %18, ptr %7, align 8
  %19 = load ptr, ptr %7, align 8
  %20 = getelementptr inbounds nuw i8, ptr %19, i64 16
  %21 = getelementptr inbounds i32, ptr %20, i64 0
  %22 = load i32, ptr %21, align 4
  store i32 %22, ptr %8, align 4
  %23 = load ptr, ptr %7, align 8
  %24 = getelementptr inbounds nuw %struct.ArrayType, ptr %23, i32 0, i32 1
  %25 = load i32, ptr %24, align 4
  %26 = icmp ne i32 %25, 1
  br i1 %26, label %40, label %27

27:                                               ; preds = %15
  %28 = load i32, ptr %8, align 4
  %29 = icmp slt i32 %28, 0
  br i1 %29, label %40, label %30

30:                                               ; preds = %27
  %31 = load ptr, ptr %7, align 8
  %32 = getelementptr inbounds nuw %struct.ArrayType, ptr %31, i32 0, i32 2
  %33 = load i32, ptr %32, align 4
  %34 = icmp ne i32 %33, 0
  br i1 %34, label %40, label %35

35:                                               ; preds = %30
  %36 = load ptr, ptr %7, align 8
  %37 = getelementptr inbounds nuw %struct.ArrayType, ptr %36, i32 0, i32 3
  %38 = load i32, ptr %37, align 4
  %39 = icmp ne i32 %38, 26
  br i1 %39, label %40, label %51

40:                                               ; preds = %35, %30, %27, %15
  br label %41

41:                                               ; preds = %40
  br i1 true, label %42, label %44

42:                                               ; preds = %41
  %43 = call zeroext i1 @errstart_cold(i32 noundef 21, ptr noundef null) #8
  br i1 %43, label %46, label %48

44:                                               ; preds = %41
  %45 = call zeroext i1 @errstart(i32 noundef 21, ptr noundef null)
  br i1 %45, label %46, label %48

46:                                               ; preds = %44, %42
  %47 = call i32 (ptr, ...) @errmsg_internal(ptr noundef @.str.11)
  call void @errfinish(ptr noundef @.str.1, i32 noundef 1500, ptr noundef @__func__.get_func_trftypes)
  br label %48

48:                                               ; preds = %46, %44, %42
  unreachable

49:                                               ; No predecessors!
  br label %50

50:                                               ; preds = %49
  br label %51

51:                                               ; preds = %50, %35
  %52 = load i32, ptr %8, align 4
  %53 = sext i32 %52 to i64
  %54 = mul i64 %53, 4
  %55 = call ptr @palloc(i64 noundef %54)
  %56 = load ptr, ptr %5, align 8
  store ptr %55, ptr %56, align 8
  %57 = load ptr, ptr %5, align 8
  %58 = load ptr, ptr %57, align 8
  %59 = load ptr, ptr %7, align 8
  %60 = load ptr, ptr %7, align 8
  %61 = getelementptr inbounds nuw %struct.ArrayType, ptr %60, i32 0, i32 2
  %62 = load i32, ptr %61, align 4
  %63 = icmp ne i32 %62, 0
  br i1 %63, label %64, label %69

64:                                               ; preds = %51
  %65 = load ptr, ptr %7, align 8
  %66 = getelementptr inbounds nuw %struct.ArrayType, ptr %65, i32 0, i32 2
  %67 = load i32, ptr %66, align 4
  %68 = sext i32 %67 to i64
  br label %78

69:                                               ; preds = %51
  %70 = load ptr, ptr %7, align 8
  %71 = getelementptr inbounds nuw %struct.ArrayType, ptr %70, i32 0, i32 1
  %72 = load i32, ptr %71, align 4
  %73 = sext i32 %72 to i64
  %74 = mul i64 8, %73
  %75 = add i64 16, %74
  %76 = add i64 %75, 7
  %77 = and i64 %76, -8
  br label %78

78:                                               ; preds = %69, %64
  %79 = phi i64 [ %68, %64 ], [ %77, %69 ]
  %80 = getelementptr inbounds nuw i8, ptr %59, i64 %79
  %81 = load i32, ptr %8, align 4
  %82 = sext i32 %81 to i64
  %83 = mul i64 %82, 4
  call void @llvm.memcpy.p0.p0.i64(ptr align 4 %58, ptr align 1 %80, i64 %83, i1 false)
  %84 = load i32, ptr %8, align 4
  store i32 %84, ptr %3, align 4
  store i32 1, ptr %10, align 4
  br label %86

85:                                               ; preds = %2
  store i32 0, ptr %3, align 4
  store i32 1, ptr %10, align 4
  br label %86

86:                                               ; preds = %85, %78
  call void @llvm.lifetime.end.p0(i64 1, ptr %9) #7
  call void @llvm.lifetime.end.p0(i64 4, ptr %8) #7
  call void @llvm.lifetime.end.p0(i64 8, ptr %7) #7
  call void @llvm.lifetime.end.p0(i64 8, ptr %6) #7
  %87 = load i32, ptr %3, align 4
  ret i32 %87
}