; Function Attrs: nounwind uwtable
define dso_local range(i32 0, -2147483648) i32 @get_func_trftypes(ptr noundef %0, ptr noundef writeonly captures(none) %1) local_unnamed_addr #0 {
  %3 = alloca i8, align 1
  call void @llvm.lifetime.start.p0(i64 1, ptr nonnull %3) #8
  %4 = call i64 @SysCacheGetAttr(i32 noundef 47, ptr noundef %0, i16 noundef signext 25, ptr noundef nonnull %3) #8
  %5 = load i8, ptr %3, align 1, !range !9, !noundef !10
  %6 = trunc nuw i8 %5 to i1
  br i1 %6, label %41, label %7

7:                                                ; preds = %2
  %8 = inttoptr i64 %4 to ptr
  %9 = call ptr @pg_detoast_datum(ptr noundef %8) #8
  %10 = getelementptr inbounds nuw i8, ptr %9, i64 16
  %11 = load i32, ptr %10, align 4
  %12 = getelementptr inbounds nuw i8, ptr %9, i64 4
  %13 = load i32, ptr %12, align 4
  %14 = icmp ne i32 %13, 1
  %15 = icmp slt i32 %11, 0
  %or.cond = select i1 %14, i1 true, i1 %15
  br i1 %or.cond, label %22, label %16

16:                                               ; preds = %7
  %17 = getelementptr inbounds nuw i8, ptr %9, i64 8
  %18 = load i32, ptr %17, align 4
  %.not = icmp eq i32 %18, 0
  br i1 %.not, label %19, label %22

19:                                               ; preds = %16
  %20 = getelementptr inbounds nuw i8, ptr %9, i64 12
  %21 = load i32, ptr %20, align 4
  %.not19 = icmp eq i32 %21, 26
  br i1 %.not19, label %25, label %22

22:                                               ; preds = %19, %16, %7
  %23 = call zeroext i1 @errstart_cold(i32 noundef 21, ptr noundef null) #9
  call void @llvm.assume(i1 %23)
  %24 = call i32 (ptr, ...) @errmsg_internal(ptr noundef nonnull @.str.11) #8
  call void @errfinish(ptr noundef nonnull @.str.1, i32 noundef 1500, ptr noundef nonnull @__func__.get_func_trftypes) #8
  unreachable

25:                                               ; preds = %19
  %26 = zext nneg i32 %11 to i64
  %27 = shl nuw nsw i64 %26, 2
  %28 = call ptr @palloc(i64 noundef %27) #8
  store ptr %28, ptr %1, align 8
  %29 = load i32, ptr %17, align 4
  %.not20 = icmp eq i32 %29, 0
  br i1 %.not20, label %32, label %30

30:                                               ; preds = %25
  %31 = sext i32 %29 to i64
  br label %38

32:                                               ; preds = %25
  %33 = load i32, ptr %12, align 4
  %34 = sext i32 %33 to i64
  %35 = shl nsw i64 %34, 3
  %36 = add nsw i64 %35, 23
  %37 = and i64 %36, -8
  br label %38

38:                                               ; preds = %32, %30
  %39 = phi i64 [ %31, %30 ], [ %37, %32 ]
  %40 = getelementptr inbounds nuw i8, ptr %9, i64 %39
  call void @llvm.memcpy.p0.p0.i64(ptr align 4 %28, ptr align 1 %40, i64 %27, i1 false)
  br label %41

41:                                               ; preds = %2, %38
  %.0 = phi i32 [ %11, %38 ], [ 0, %2 ]
  call void @llvm.lifetime.end.p0(i64 1, ptr nonnull %3) #8
  ret i32 %.0
}